; Function Attrs: mustprogress uwtable
define hidden void @_ZN17opencv_tensorflow9AttrValue18set_allocated_funcEPNS_12NameAttrListE(ptr noundef nonnull align 8 dereferenceable(32) %0, ptr noundef %1) local_unnamed_addr #3 align 2 {
  %3 = getelementptr inbounds nuw i8, ptr %0, i64 8
  %4 = load i64, ptr %3, align 8, !tbaa !16
  %5 = and i64 %4, 1
  %.not.i = icmp eq i64 %5, 0
  %6 = and i64 %4, -4
  %7 = inttoptr i64 %6 to ptr
  br i1 %.not.i, label %_ZNK6google8protobuf11MessageLite21GetArenaForAllocationEv.exit, label %8, !prof !36

8:                                                ; preds = %2
  %9 = load ptr, ptr %7, align 8, !tbaa !37
  br label %_ZNK6google8protobuf11MessageLite21GetArenaForAllocationEv.exit

_ZNK6google8protobuf11MessageLite21GetArenaForAllocationEv.exit: ; preds = %2, %8
  %.0.i.i = phi ptr [ %9, %8 ], [ %7, %2 ]
  tail call void @_ZN17opencv_tensorflow9AttrValue11clear_valueEv(ptr noundef nonnull align 8 dereferenceable(32) %0)
  %.not = icmp eq ptr %1, null
  br i1 %.not, label %28, label %10

10:                                               ; preds = %_ZNK6google8protobuf11MessageLite21GetArenaForAllocationEv.exit
  %11 = getelementptr inbounds nuw i8, ptr %1, i64 8
  %12 = load i64, ptr %11, align 8, !tbaa !16
  %13 = and i64 %12, 2
  %.not.i.i = icmp eq i64 %13, 0
  br i1 %.not.i.i, label %14, label %_ZN6google8protobuf5Arena14InternalHelperIN17opencv_tensorflow12NameAttrListEE14GetOwningArenaEPKS4_.exit

14:                                               ; preds = %10
  %15 = and i64 %12, 1
  %.not1.i.i = icmp eq i64 %15, 0
  br i1 %.not1.i.i, label %20, label %16, !prof !36

16:                                               ; preds = %14
  %17 = and i64 %12, -4
  %18 = inttoptr i64 %17 to ptr
  %19 = load ptr, ptr %18, align 8, !tbaa !37
  br label %_ZN6google8protobuf5Arena14InternalHelperIN17opencv_tensorflow12NameAttrListEE14GetOwningArenaEPKS4_.exit

20:                                               ; preds = %14
  %21 = inttoptr i64 %12 to ptr
  br label %_ZN6google8protobuf5Arena14InternalHelperIN17opencv_tensorflow12NameAttrListEE14GetOwningArenaEPKS4_.exit

_ZN6google8protobuf5Arena14InternalHelperIN17opencv_tensorflow12NameAttrListEE14GetOwningArenaEPKS4_.exit: ; preds = %10, %16, %20
  %22 = phi ptr [ null, %10 ], [ %19, %16 ], [ %21, %20 ]
  %.not12 = icmp eq ptr %.0.i.i, %22
  br i1 %.not12, label %25, label %23

23:                                               ; preds = %_ZN6google8protobuf5Arena14InternalHelperIN17opencv_tensorflow12NameAttrListEE14GetOwningArenaEPKS4_.exit
  %24 = tail call noundef ptr @_ZN6google8protobuf8internal23GetOwnedMessageInternalEPNS0_5ArenaEPNS0_11MessageLiteES3_(ptr noundef %.0.i.i, ptr noundef nonnull %1, ptr noundef %22)
  br label %25

25:                                               ; preds = %23, %_ZN6google8protobuf5Arena14InternalHelperIN17opencv_tensorflow12NameAttrListEE14GetOwningArenaEPKS4_.exit
  %.0 = phi ptr [ %24, %23 ], [ %1, %_ZN6google8protobuf5Arena14InternalHelperIN17opencv_tensorflow12NameAttrListEE14GetOwningArenaEPKS4_.exit ]
  %26 = getelementptr inbounds nuw i8, ptr %0, i64 28
  store i32 10, ptr %26, align 4, !tbaa !79
  %27 = getelementptr inbounds nuw i8, ptr %0, i64 16
  store ptr %.0, ptr %27, align 8, !tbaa !49
  br label %28

28:                                               ; preds = %25, %_ZNK6google8protobuf11MessageLite21GetArenaForAllocationEv.exit
  ret void
}